; Function Attrs: mustprogress nofree norecurse nosync nounwind willreturn memory(read, inaccessiblemem: none) uwtable
define dso_local noundef ptr @_ZNK4Luau20SubtypingEnvironment19tryFindSubstitutionEPKNS_4TypeE(ptr noundef nonnull readonly align 8 captures(none) dereferenceable(176) %0, ptr noundef %1) local_unnamed_addr #9 align 2 {
  %3 = ptrtoint ptr %1 to i64
  %4 = lshr i64 %3, 4
  %5 = lshr i64 %3, 9
  %6 = xor i64 %4, %5
  br label %tailrecurse

tailrecurse:                                      ; preds = %.loopexit, %2
  %.tr = phi ptr [ %0, %2 ], [ %29, %.loopexit ]
  %7 = getelementptr inbounds nuw i8, ptr %.tr, i64 88
  %8 = getelementptr inbounds nuw i8, ptr %.tr, i64 104
  %9 = load i64, ptr %8, align 8, !tbaa !95
  %10 = icmp eq i64 %9, 0
  br i1 %10, label %.loopexit, label %11

11:                                               ; preds = %tailrecurse
  %12 = getelementptr inbounds nuw i8, ptr %.tr, i64 112
  %13 = load ptr, ptr %12, align 8, !tbaa !96
  %14 = icmp eq ptr %1, %13
  br i1 %14, label %.loopexit, label %15

15:                                               ; preds = %11
  %16 = getelementptr inbounds nuw i8, ptr %.tr, i64 96
  %17 = load i64, ptr %16, align 8, !tbaa !97
  %18 = add i64 %17, -1
  %19 = load ptr, ptr %7, align 8, !tbaa !92
  br label %20

20:                                               ; preds = %26, %15
  %.pn.i.i = phi i64 [ %6, %15 ], [ %28, %26 ]
  %.02028.i.i = phi i64 [ 0, %15 ], [ %27, %26 ]
  %.02129.i.i = and i64 %.pn.i.i, %18
  %21 = getelementptr inbounds nuw %"struct.std::pair", ptr %19, i64 %.02129.i.i
  %22 = load ptr, ptr %21, align 8, !tbaa !96
  %23 = icmp eq ptr %22, %1
  br i1 %23, label %.split.loop.exit, label %24

24:                                               ; preds = %20
  %25 = icmp eq ptr %22, %13
  br i1 %25, label %.loopexit, label %26

26:                                               ; preds = %24
  %27 = add i64 %.02028.i.i, 1
  %28 = add i64 %27, %.02129.i.i
  %.not.i.i = icmp ugt i64 %27, %18
  br i1 %.not.i.i, label %.loopexit, label %20, !llvm.loop !98

.loopexit:                                        ; preds = %26, %24, %tailrecurse, %11
  %29 = load ptr, ptr %.tr, align 8, !tbaa !99
  %.not6 = icmp eq ptr %29, null
  br i1 %.not6, label %.split.loop.exit9, label %tailrecurse

.split.loop.exit:                                 ; preds = %20
  %30 = getelementptr inbounds nuw i8, ptr %21, i64 8
  br label %.split.loop.exit9

.split.loop.exit9:                                ; preds = %.loopexit, %.split.loop.exit
  %.1 = phi ptr [ %30, %.split.loop.exit ], [ null, %.loopexit ]
  ret ptr %.1
}